; ModuleID = '/tmp/tmp.1pxmufDYOq/extracted.ll'
source_filename = "/home/manuel/Dev/spec-llvm-bench/test-suite/test-suite-externals/speccpu2017/benchspec/CPU/523.xalancbmk_r/src/XPath.cpp"
target datalayout = "e-m:e-p270:32:32-p271:32:32-p272:64:64-i64:64-i128:128-f80:128-n8:16:32:64-S128"
target triple = "x86_64-unknown-linux-gnu"

%"class.xalanc_1_10::XPathFunctionTable" = type { ptr, [36 x ptr], ptr }
%"class.xalanc_1_10::XObjectPtr" = type { ptr }
%"class.xalanc_1_10::XalanVector.5" = type { ptr, i64, i64, ptr }

@_ZN11xalanc_1_105XPath11s_functionsE = external dso_local global %"class.xalanc_1_10::XPathFunctionTable", align 8

; Function Attrs: nocallback nofree nosync nounwind willreturn memory(argmem: readwrite)
declare void @llvm.lifetime.start.p0(ptr captures(none)) #0

declare i32 @__gxx_personality_v0(...)

; Function Attrs: nocallback nofree nosync nounwind willreturn memory(argmem: readwrite)
declare void @llvm.lifetime.end.p0(ptr captures(none)) #0

; Function Attrs: mustprogress uwtable
declare dso_local void @_ZNK11xalanc_1_105XPath11executeMoreEPNS_9XalanNodeEPKiRNS_21XPathExecutionContextE(ptr dead_on_unwind noalias writable sret(%"class.xalanc_1_10::XObjectPtr") align 8, ptr noundef nonnull align 8 dereferenceable(129), ptr noundef, ptr noundef, ptr noundef nonnull align 8 dereferenceable(24)) local_unnamed_addr #1 align 2

; Function Attrs: mustprogress uwtable
define dso_local void @_ZNK11xalanc_1_105XPath11runFunctionEPNS_9XalanNodeEPKiRNS_21XPathExecutionContextE(ptr dead_on_unwind noalias writable sret(%"class.xalanc_1_10::XObjectPtr") align 8 %agg.result, ptr noundef nonnull align 8 dereferenceable(129) %this, ptr noundef %context, ptr noundef %opPos, ptr noundef nonnull align 8 dereferenceable(24) %executionContext) local_unnamed_addr #1 align 2 personality ptr @__gxx_personality_v0 {
entry:
  %agg.tmp = alloca %"class.xalanc_1_10::XObjectPtr", align 8
  %theArg1 = alloca %"class.xalanc_1_10::XObjectPtr", align 8
  %agg.tmp26 = alloca %"class.xalanc_1_10::XObjectPtr", align 8
  %agg.tmp28 = alloca %"class.xalanc_1_10::XObjectPtr", align 8
  %theArg141 = alloca %"class.xalanc_1_10::XObjectPtr", align 8
  %theArg2 = alloca %"class.xalanc_1_10::XObjectPtr", align 8
  %agg.tmp54 = alloca %"class.xalanc_1_10::XObjectPtr", align 8
  %agg.tmp56 = alloca %"class.xalanc_1_10::XObjectPtr", align 8
  %agg.tmp59 = alloca %"class.xalanc_1_10::XObjectPtr", align 8
  %args = alloca %"class.xalanc_1_10::XalanVector.5", align 8
  %ref.tmp = alloca %"class.xalanc_1_10::XObjectPtr", align 8
  %add.ptr = getelementptr i8, ptr %opPos, i64 4
  %0 = load i32, ptr %add.ptr, align 4, !tbaa !0
  %idx.ext = sext i32 %0 to i64
  %add.ptr2 = getelementptr i32, ptr %opPos, i64 %idx.ext
  %add.ptr3 = getelementptr i8, ptr %add.ptr2, i64 -4
  %add.ptr4 = getelementptr i8, ptr %opPos, i64 8
  %1 = load i32, ptr %add.ptr4, align 4, !tbaa !0
  %incdec.ptr = getelementptr i8, ptr %opPos, i64 12
  %2 = load i32, ptr %incdec.ptr, align 4, !tbaa !0
  %incdec.ptr9 = getelementptr i8, ptr %opPos, i64 16
  switch i32 %2, label %if.else74 [
    i32 0, label %if.then
    i32 1, label %if.then12
    i32 2, label %if.then19
    i32 3, label %if.then40
  ]

if.then:                                          ; preds = %entry
  %idxprom.i = sext i32 %1 to i64
  %arrayidx.i = getelementptr ptr, ptr getelementptr inbounds nuw (i8, ptr @_ZN11xalanc_1_105XPath11s_functionsE, i64 8), i64 %idxprom.i
  %3 = load ptr, ptr %arrayidx.i, align 8, !tbaa !4
  %m_locator = getelementptr inbounds nuw i8, ptr %this, i64 120
  %4 = load ptr, ptr %m_locator, align 8, !tbaa !7
  %vtable = load ptr, ptr %3, align 8, !tbaa !21
  %vfn = getelementptr inbounds nuw i8, ptr %vtable, i64 24
  %5 = load ptr, ptr %vfn, align 8
  tail call void %5(ptr dead_on_unwind writable sret(%"class.xalanc_1_10::XObjectPtr") align 8 %agg.result, ptr noundef nonnull align 8 dereferenceable(8) %3, ptr noundef nonnull align 8 dereferenceable(24) %executionContext, ptr noundef %context, ptr noundef %4)
  br label %cleanup

if.then12:                                        ; preds = %entry
  %idxprom.i158 = sext i32 %1 to i64
  %arrayidx.i159 = getelementptr ptr, ptr getelementptr inbounds nuw (i8, ptr @_ZN11xalanc_1_105XPath11s_functionsE, i64 8), i64 %idxprom.i158
  %6 = load ptr, ptr %arrayidx.i159, align 8, !tbaa !4
  call void @_ZNK11xalanc_1_105XPath11executeMoreEPNS_9XalanNodeEPKiRNS_21XPathExecutionContextE(ptr dead_on_unwind nonnull writable sret(%"class.xalanc_1_10::XObjectPtr") align 8 %agg.tmp, ptr noundef nonnull align 8 dereferenceable(129) %this, ptr noundef %context, ptr noundef %incdec.ptr9, ptr noundef nonnull align 8 dereferenceable(24) %executionContext)
  %m_locator14 = getelementptr inbounds nuw i8, ptr %this, i64 120
  %7 = load ptr, ptr %m_locator14, align 8, !tbaa !7
  %vtable15 = load ptr, ptr %6, align 8, !tbaa !21
  %vfn16 = getelementptr inbounds nuw i8, ptr %vtable15, i64 32
  %8 = load ptr, ptr %vfn16, align 8
  invoke void %8(ptr dead_on_unwind writable sret(%"class.xalanc_1_10::XObjectPtr") align 8 %agg.result, ptr noundef nonnull align 8 dereferenceable(8) %6, ptr noundef nonnull align 8 dereferenceable(24) %executionContext, ptr noundef %context, ptr noundef nonnull %agg.tmp, ptr noundef %7)
          to label %invoke.cont unwind label %lpad

invoke.cont:                                      ; preds = %if.then12
  %9 = load ptr, ptr %agg.tmp, align 8, !tbaa !23
  invoke void @_ZN11xalanc_1_1027XalanReferenceCountedObject15removeReferenceEPS0_(ptr noundef %9)
          to label %cleanup unwind label %terminate.lpad.i

terminate.lpad.i:                                 ; preds = %invoke.cont
  %10 = landingpad { ptr, i32 }
          catch ptr null
  %11 = extractvalue { ptr, i32 } %10, 0
  call void @__clang_call_terminate(ptr %11) #5
  unreachable

lpad:                                             ; preds = %if.then12
  %12 = landingpad { ptr, i32 }
          cleanup
  %13 = load ptr, ptr %agg.tmp, align 8, !tbaa !23
  invoke void @_ZN11xalanc_1_1027XalanReferenceCountedObject15removeReferenceEPS0_(ptr noundef %13)
          to label %ehcleanup91 unwind label %terminate.lpad.i160

terminate.lpad.i160:                              ; preds = %lpad
  %14 = landingpad { ptr, i32 }
          catch ptr null
  %15 = extractvalue { ptr, i32 } %14, 0
  call void @__clang_call_terminate(ptr %15) #5
  unreachable

if.then19:                                        ; preds = %entry
  call void @llvm.lifetime.start.p0(ptr nonnull %theArg1) #6
  call void @_ZNK11xalanc_1_105XPath11executeMoreEPNS_9XalanNodeEPKiRNS_21XPathExecutionContextE(ptr dead_on_unwind nonnull writable sret(%"class.xalanc_1_10::XObjectPtr") align 8 %theArg1, ptr noundef nonnull align 8 dereferenceable(129) %this, ptr noundef %context, ptr noundef %incdec.ptr9, ptr noundef nonnull align 8 dereferenceable(24) %executionContext)
  %add.ptr.i = getelementptr i8, ptr %opPos, i64 20
  %16 = load i32, ptr %add.ptr.i, align 4, !tbaa !0
  %idxprom.i162 = sext i32 %1 to i64
  %arrayidx.i163 = getelementptr ptr, ptr getelementptr inbounds nuw (i8, ptr @_ZN11xalanc_1_105XPath11s_functionsE, i64 8), i64 %idxprom.i162
  %17 = load ptr, ptr %arrayidx.i163, align 8, !tbaa !4
  %18 = load ptr, ptr %theArg1, align 8, !tbaa !23
  store ptr %18, ptr %agg.tmp26, align 8, !tbaa !23
  invoke void @_ZN11xalanc_1_1027XalanReferenceCountedObject12addReferenceEPS0_(ptr noundef %18)
          to label %invoke.cont27 unwind label %lpad21

invoke.cont27:                                    ; preds = %if.then19
  %idx.ext.i = sext i32 %16 to i64
  %add.ptr2.i = getelementptr i32, ptr %incdec.ptr9, i64 %idx.ext.i
  invoke void @_ZNK11xalanc_1_105XPath11executeMoreEPNS_9XalanNodeEPKiRNS_21XPathExecutionContextE(ptr dead_on_unwind nonnull writable sret(%"class.xalanc_1_10::XObjectPtr") align 8 %agg.tmp28, ptr noundef nonnull align 8 dereferenceable(129) %this, ptr noundef %context, ptr noundef %add.ptr2.i, ptr noundef nonnull align 8 dereferenceable(24) %executionContext)
          to label %invoke.cont30 unwind label %lpad29

invoke.cont30:                                    ; preds = %invoke.cont27
  %m_locator31 = getelementptr inbounds nuw i8, ptr %this, i64 120
  %19 = load ptr, ptr %m_locator31, align 8, !tbaa !7
  %vtable32 = load ptr, ptr %17, align 8, !tbaa !21
  %vfn33 = getelementptr inbounds nuw i8, ptr %vtable32, i64 40
  %20 = load ptr, ptr %vfn33, align 8
  invoke void %20(ptr dead_on_unwind writable sret(%"class.xalanc_1_10::XObjectPtr") align 8 %agg.result, ptr noundef nonnull align 8 dereferenceable(8) %17, ptr noundef nonnull align 8 dereferenceable(24) %executionContext, ptr noundef %context, ptr noundef nonnull %agg.tmp26, ptr noundef nonnull %agg.tmp28, ptr noundef %19)
          to label %invoke.cont35 unwind label %lpad34

invoke.cont35:                                    ; preds = %invoke.cont30
  %21 = load ptr, ptr %agg.tmp28, align 8, !tbaa !23
  invoke void @_ZN11xalanc_1_1027XalanReferenceCountedObject15removeReferenceEPS0_(ptr noundef %21)
          to label %_ZN11xalanc_1_1010XObjectPtrD2Ev.exit165 unwind label %terminate.lpad.i164

terminate.lpad.i164:                              ; preds = %invoke.cont35
  %22 = landingpad { ptr, i32 }
          catch ptr null
  %23 = extractvalue { ptr, i32 } %22, 0
  call void @__clang_call_terminate(ptr %23) #5
  unreachable

_ZN11xalanc_1_1010XObjectPtrD2Ev.exit165:         ; preds = %invoke.cont35
  %24 = load ptr, ptr %agg.tmp26, align 8, !tbaa !23
  invoke void @_ZN11xalanc_1_1027XalanReferenceCountedObject15removeReferenceEPS0_(ptr noundef %24)
          to label %_ZN11xalanc_1_1010XObjectPtrD2Ev.exit167 unwind label %terminate.lpad.i166

terminate.lpad.i166:                              ; preds = %_ZN11xalanc_1_1010XObjectPtrD2Ev.exit165
  %25 = landingpad { ptr, i32 }
          catch ptr null
  %26 = extractvalue { ptr, i32 } %25, 0
  call void @__clang_call_terminate(ptr %26) #5
  unreachable

_ZN11xalanc_1_1010XObjectPtrD2Ev.exit167:         ; preds = %_ZN11xalanc_1_1010XObjectPtrD2Ev.exit165
  %27 = load ptr, ptr %theArg1, align 8, !tbaa !23
  invoke void @_ZN11xalanc_1_1027XalanReferenceCountedObject15removeReferenceEPS0_(ptr noundef %27)
          to label %_ZN11xalanc_1_1010XObjectPtrD2Ev.exit169 unwind label %terminate.lpad.i168

terminate.lpad.i168:                              ; preds = %_ZN11xalanc_1_1010XObjectPtrD2Ev.exit167
  %28 = landingpad { ptr, i32 }
          catch ptr null
  %29 = extractvalue { ptr, i32 } %28, 0
  call void @__clang_call_terminate(ptr %29) #5
  unreachable

_ZN11xalanc_1_1010XObjectPtrD2Ev.exit169:         ; preds = %_ZN11xalanc_1_1010XObjectPtrD2Ev.exit167
  call void @llvm.lifetime.end.p0(ptr nonnull %theArg1) #6
  br label %cleanup

lpad21:                                           ; preds = %if.then19
  %30 = landingpad { ptr, i32 }
          cleanup
  br label %ehcleanup36

lpad29:                                           ; preds = %invoke.cont27
  %31 = landingpad { ptr, i32 }
          cleanup
  br label %ehcleanup

lpad34:                                           ; preds = %invoke.cont30
  %32 = landingpad { ptr, i32 }
          cleanup
  %33 = load ptr, ptr %agg.tmp28, align 8, !tbaa !23
  invoke void @_ZN11xalanc_1_1027XalanReferenceCountedObject15removeReferenceEPS0_(ptr noundef %33)
          to label %ehcleanup unwind label %terminate.lpad.i170

terminate.lpad.i170:                              ; preds = %lpad34
  %34 = landingpad { ptr, i32 }
          catch ptr null
  %35 = extractvalue { ptr, i32 } %34, 0
  call void @__clang_call_terminate(ptr %35) #5
  unreachable

ehcleanup:                                        ; preds = %lpad34, %lpad29
  %.pn153 = phi { ptr, i32 } [ %31, %lpad29 ], [ %32, %lpad34 ]
  %36 = load ptr, ptr %agg.tmp26, align 8, !tbaa !23
  invoke void @_ZN11xalanc_1_1027XalanReferenceCountedObject15removeReferenceEPS0_(ptr noundef %36)
          to label %ehcleanup36 unwind label %terminate.lpad.i172

terminate.lpad.i172:                              ; preds = %ehcleanup
  %37 = landingpad { ptr, i32 }
          catch ptr null
  %38 = extractvalue { ptr, i32 } %37, 0
  call void @__clang_call_terminate(ptr %38) #5
  unreachable

ehcleanup36:                                      ; preds = %ehcleanup, %lpad21
  %.pn153.pn = phi { ptr, i32 } [ %30, %lpad21 ], [ %.pn153, %ehcleanup ]
  %39 = load ptr, ptr %theArg1, align 8, !tbaa !23
  invoke void @_ZN11xalanc_1_1027XalanReferenceCountedObject15removeReferenceEPS0_(ptr noundef %39)
          to label %_ZN11xalanc_1_1010XObjectPtrD2Ev.exit175 unwind label %terminate.lpad.i174

terminate.lpad.i174:                              ; preds = %ehcleanup36
  %40 = landingpad { ptr, i32 }
          catch ptr null
  %41 = extractvalue { ptr, i32 } %40, 0
  call void @__clang_call_terminate(ptr %41) #5
  unreachable

_ZN11xalanc_1_1010XObjectPtrD2Ev.exit175:         ; preds = %ehcleanup36
  call void @llvm.lifetime.end.p0(ptr nonnull %theArg1) #6
  br label %ehcleanup91

if.then40:                                        ; preds = %entry
  call void @llvm.lifetime.start.p0(ptr nonnull %theArg141) #6
  call void @_ZNK11xalanc_1_105XPath11executeMoreEPNS_9XalanNodeEPKiRNS_21XPathExecutionContextE(ptr dead_on_unwind nonnull writable sret(%"class.xalanc_1_10::XObjectPtr") align 8 %theArg141, ptr noundef nonnull align 8 dereferenceable(129) %this, ptr noundef %context, ptr noundef %incdec.ptr9, ptr noundef nonnull align 8 dereferenceable(24) %executionContext)
  %add.ptr.i176 = getelementptr i8, ptr %opPos, i64 20
  %42 = load i32, ptr %add.ptr.i176, align 4, !tbaa !0
  %idx.ext.i177 = sext i32 %42 to i64
  %add.ptr2.i178 = getelementptr i32, ptr %incdec.ptr9, i64 %idx.ext.i177
  call void @llvm.lifetime.start.p0(ptr nonnull %theArg2) #6
  invoke void @_ZNK11xalanc_1_105XPath11executeMoreEPNS_9XalanNodeEPKiRNS_21XPathExecutionContextE(ptr dead_on_unwind nonnull writable sret(%"class.xalanc_1_10::XObjectPtr") align 8 %theArg2, ptr noundef nonnull align 8 dereferenceable(129) %this, ptr noundef %context, ptr noundef %add.ptr2.i178, ptr noundef nonnull align 8 dereferenceable(24) %executionContext)
          to label %invoke.cont47 unwind label %lpad46

invoke.cont47:                                    ; preds = %if.then40
  %add.ptr.i179 = getelementptr i8, ptr %add.ptr2.i178, i64 4
  %43 = load i32, ptr %add.ptr.i179, align 4, !tbaa !0
  %idx.ext.i180 = sext i32 %43 to i64
  %add.ptr2.i181 = getelementptr i32, ptr %add.ptr2.i178, i64 %idx.ext.i180
  %idxprom.i182 = sext i32 %1 to i64
  %arrayidx.i183 = getelementptr ptr, ptr getelementptr inbounds nuw (i8, ptr @_ZN11xalanc_1_105XPath11s_functionsE, i64 8), i64 %idxprom.i182
  %44 = load ptr, ptr %arrayidx.i183, align 8, !tbaa !4
  %45 = load ptr, ptr %theArg141, align 8, !tbaa !23
  store ptr %45, ptr %agg.tmp54, align 8, !tbaa !23
  invoke void @_ZN11xalanc_1_1027XalanReferenceCountedObject12addReferenceEPS0_(ptr noundef %45)
          to label %invoke.cont55 unwind label %lpad49

invoke.cont55:                                    ; preds = %invoke.cont47
  %46 = load ptr, ptr %theArg2, align 8, !tbaa !23
  store ptr %46, ptr %agg.tmp56, align 8, !tbaa !23
  invoke void @_ZN11xalanc_1_1027XalanReferenceCountedObject12addReferenceEPS0_(ptr noundef %46)
          to label %invoke.cont58 unwind label %lpad57

invoke.cont58:                                    ; preds = %invoke.cont55
  invoke void @_ZNK11xalanc_1_105XPath11executeMoreEPNS_9XalanNodeEPKiRNS_21XPathExecutionContextE(ptr dead_on_unwind nonnull writable sret(%"class.xalanc_1_10::XObjectPtr") align 8 %agg.tmp59, ptr noundef nonnull align 8 dereferenceable(129) %this, ptr noundef %context, ptr noundef %add.ptr2.i181, ptr noundef nonnull align 8 dereferenceable(24) %executionContext)
          to label %invoke.cont61 unwind label %lpad60

invoke.cont61:                                    ; preds = %invoke.cont58
  %m_locator62 = getelementptr inbounds nuw i8, ptr %this, i64 120
  %47 = load ptr, ptr %m_locator62, align 8, !tbaa !7
  %vtable63 = load ptr, ptr %44, align 8, !tbaa !21
  %vfn64 = getelementptr inbounds nuw i8, ptr %vtable63, i64 48
  %48 = load ptr, ptr %vfn64, align 8
  invoke void %48(ptr dead_on_unwind writable sret(%"class.xalanc_1_10::XObjectPtr") align 8 %agg.result, ptr noundef nonnull align 8 dereferenceable(8) %44, ptr noundef nonnull align 8 dereferenceable(24) %executionContext, ptr noundef %context, ptr noundef nonnull %agg.tmp54, ptr noundef nonnull %agg.tmp56, ptr noundef nonnull %agg.tmp59, ptr noundef %47)
          to label %invoke.cont66 unwind label %lpad65

invoke.cont66:                                    ; preds = %invoke.cont61
  %49 = load ptr, ptr %agg.tmp59, align 8, !tbaa !23
  invoke void @_ZN11xalanc_1_1027XalanReferenceCountedObject15removeReferenceEPS0_(ptr noundef %49)
          to label %_ZN11xalanc_1_1010XObjectPtrD2Ev.exit187 unwind label %terminate.lpad.i186

terminate.lpad.i186:                              ; preds = %invoke.cont66
  %50 = landingpad { ptr, i32 }
          catch ptr null
  %51 = extractvalue { ptr, i32 } %50, 0
  call void @__clang_call_terminate(ptr %51) #5
  unreachable

_ZN11xalanc_1_1010XObjectPtrD2Ev.exit187:         ; preds = %invoke.cont66
  %52 = load ptr, ptr %agg.tmp56, align 8, !tbaa !23
  invoke void @_ZN11xalanc_1_1027XalanReferenceCountedObject15removeReferenceEPS0_(ptr noundef %52)
          to label %_ZN11xalanc_1_1010XObjectPtrD2Ev.exit189 unwind label %terminate.lpad.i188

terminate.lpad.i188:                              ; preds = %_ZN11xalanc_1_1010XObjectPtrD2Ev.exit187
  %53 = landingpad { ptr, i32 }
          catch ptr null
  %54 = extractvalue { ptr, i32 } %53, 0
  call void @__clang_call_terminate(ptr %54) #5
  unreachable

_ZN11xalanc_1_1010XObjectPtrD2Ev.exit189:         ; preds = %_ZN11xalanc_1_1010XObjectPtrD2Ev.exit187
  %55 = load ptr, ptr %agg.tmp54, align 8, !tbaa !23
  invoke void @_ZN11xalanc_1_1027XalanReferenceCountedObject15removeReferenceEPS0_(ptr noundef %55)
          to label %_ZN11xalanc_1_1010XObjectPtrD2Ev.exit191 unwind label %terminate.lpad.i190

terminate.lpad.i190:                              ; preds = %_ZN11xalanc_1_1010XObjectPtrD2Ev.exit189
  %56 = landingpad { ptr, i32 }
          catch ptr null
  %57 = extractvalue { ptr, i32 } %56, 0
  call void @__clang_call_terminate(ptr %57) #5
  unreachable

_ZN11xalanc_1_1010XObjectPtrD2Ev.exit191:         ; preds = %_ZN11xalanc_1_1010XObjectPtrD2Ev.exit189
  %58 = load ptr, ptr %theArg2, align 8, !tbaa !23
  invoke void @_ZN11xalanc_1_1027XalanReferenceCountedObject15removeReferenceEPS0_(ptr noundef %58)
          to label %_ZN11xalanc_1_1010XObjectPtrD2Ev.exit193 unwind label %terminate.lpad.i192

terminate.lpad.i192:                              ; preds = %_ZN11xalanc_1_1010XObjectPtrD2Ev.exit191
  %59 = landingpad { ptr, i32 }
          catch ptr null
  %60 = extractvalue { ptr, i32 } %59, 0
  call void @__clang_call_terminate(ptr %60) #5
  unreachable

_ZN11xalanc_1_1010XObjectPtrD2Ev.exit193:         ; preds = %_ZN11xalanc_1_1010XObjectPtrD2Ev.exit191
  call void @llvm.lifetime.end.p0(ptr nonnull %theArg2) #6
  %61 = load ptr, ptr %theArg141, align 8, !tbaa !23
  invoke void @_ZN11xalanc_1_1027XalanReferenceCountedObject15removeReferenceEPS0_(ptr noundef %61)
          to label %_ZN11xalanc_1_1010XObjectPtrD2Ev.exit195 unwind label %terminate.lpad.i194

terminate.lpad.i194:                              ; preds = %_ZN11xalanc_1_1010XObjectPtrD2Ev.exit193
  %62 = landingpad { ptr, i32 }
          catch ptr null
  %63 = extractvalue { ptr, i32 } %62, 0
  call void @__clang_call_terminate(ptr %63) #5
  unreachable

_ZN11xalanc_1_1010XObjectPtrD2Ev.exit195:         ; preds = %_ZN11xalanc_1_1010XObjectPtrD2Ev.exit193
  call void @llvm.lifetime.end.p0(ptr nonnull %theArg141) #6
  br label %cleanup

lpad46:                                           ; preds = %if.then40
  %64 = landingpad { ptr, i32 }
          cleanup
  br label %ehcleanup71

lpad49:                                           ; preds = %invoke.cont47
  %65 = landingpad { ptr, i32 }
          cleanup
  br label %ehcleanup70

lpad57:                                           ; preds = %invoke.cont55
  %66 = landingpad { ptr, i32 }
          cleanup
  br label %ehcleanup69

lpad60:                                           ; preds = %invoke.cont58
  %67 = landingpad { ptr, i32 }
          cleanup
  br label %ehcleanup68

lpad65:                                           ; preds = %invoke.cont61
  %68 = landingpad { ptr, i32 }
          cleanup
  %69 = load ptr, ptr %agg.tmp59, align 8, !tbaa !23
  invoke void @_ZN11xalanc_1_1027XalanReferenceCountedObject15removeReferenceEPS0_(ptr noundef %69)
          to label %ehcleanup68 unwind label %terminate.lpad.i196

terminate.lpad.i196:                              ; preds = %lpad65
  %70 = landingpad { ptr, i32 }
          catch ptr null
  %71 = extractvalue { ptr, i32 } %70, 0
  call void @__clang_call_terminate(ptr %71) #5
  unreachable

ehcleanup68:                                      ; preds = %lpad65, %lpad60
  %.pn148 = phi { ptr, i32 } [ %67, %lpad60 ], [ %68, %lpad65 ]
  %72 = load ptr, ptr %agg.tmp56, align 8, !tbaa !23
  invoke void @_ZN11xalanc_1_1027XalanReferenceCountedObject15removeReferenceEPS0_(ptr noundef %72)
          to label %ehcleanup69 unwind label %terminate.lpad.i198

terminate.lpad.i198:                              ; preds = %ehcleanup68
  %73 = landingpad { ptr, i32 }
          catch ptr null
  %74 = extractvalue { ptr, i32 } %73, 0
  call void @__clang_call_terminate(ptr %74) #5
  unreachable

ehcleanup69:                                      ; preds = %ehcleanup68, %lpad57
  %.pn148.pn = phi { ptr, i32 } [ %66, %lpad57 ], [ %.pn148, %ehcleanup68 ]
  %75 = load ptr, ptr %agg.tmp54, align 8, !tbaa !23
  invoke void @_ZN11xalanc_1_1027XalanReferenceCountedObject15removeReferenceEPS0_(ptr noundef %75)
          to label %ehcleanup70 unwind label %terminate.lpad.i200

terminate.lpad.i200:                              ; preds = %ehcleanup69
  %76 = landingpad { ptr, i32 }
          catch ptr null
  %77 = extractvalue { ptr, i32 } %76, 0
  call void @__clang_call_terminate(ptr %77) #5
  unreachable

ehcleanup70:                                      ; preds = %ehcleanup69, %lpad49
  %.pn148.pn.pn = phi { ptr, i32 } [ %65, %lpad49 ], [ %.pn148.pn, %ehcleanup69 ]
  %78 = load ptr, ptr %theArg2, align 8, !tbaa !23
  invoke void @_ZN11xalanc_1_1027XalanReferenceCountedObject15removeReferenceEPS0_(ptr noundef %78)
          to label %ehcleanup71 unwind label %terminate.lpad.i202

terminate.lpad.i202:                              ; preds = %ehcleanup70
  %79 = landingpad { ptr, i32 }
          catch ptr null
  %80 = extractvalue { ptr, i32 } %79, 0
  call void @__clang_call_terminate(ptr %80) #5
  unreachable

ehcleanup71:                                      ; preds = %ehcleanup70, %lpad46
  %.pn148.pn.pn.pn = phi { ptr, i32 } [ %64, %lpad46 ], [ %.pn148.pn.pn, %ehcleanup70 ]
  call void @llvm.lifetime.end.p0(ptr nonnull %theArg2) #6
  %81 = load ptr, ptr %theArg141, align 8, !tbaa !23
  invoke void @_ZN11xalanc_1_1027XalanReferenceCountedObject15removeReferenceEPS0_(ptr noundef %81)
          to label %_ZN11xalanc_1_1010XObjectPtrD2Ev.exit205 unwind label %terminate.lpad.i204

terminate.lpad.i204:                              ; preds = %ehcleanup71
  %82 = landingpad { ptr, i32 }
          catch ptr null
  %83 = extractvalue { ptr, i32 } %82, 0
  call void @__clang_call_terminate(ptr %83) #5
  unreachable

_ZN11xalanc_1_1010XObjectPtrD2Ev.exit205:         ; preds = %ehcleanup71
  call void @llvm.lifetime.end.p0(ptr nonnull %theArg141) #6
  br label %ehcleanup91

if.else74:                                        ; preds = %entry
  call void @llvm.lifetime.start.p0(ptr nonnull %args) #6
  %m_memoryManager.i = getelementptr inbounds nuw i8, ptr %executionContext, i64 8
  %84 = load ptr, ptr %m_memoryManager.i, align 8, !tbaa !26, !nonnull !28, !align !29
  store ptr %84, ptr %args, align 8, !tbaa !30
  %m_size.i = getelementptr inbounds nuw i8, ptr %args, i64 8
  store i64 0, ptr %m_size.i, align 8, !tbaa !33
  %m_allocation.i = getelementptr inbounds nuw i8, ptr %args, i64 16
  store i64 0, ptr %m_allocation.i, align 8, !tbaa !34
  %m_data.i = getelementptr inbounds nuw i8, ptr %args, i64 24
  store ptr null, ptr %m_data.i, align 8, !tbaa !35
  %conv = sext i32 %2 to i64
  invoke void @_ZN11xalanc_1_1011XalanVectorINS_10XObjectPtrENS_31MemoryManagedConstructionTraitsIS1_EEE9doReserveEm(ptr noundef nonnull align 8 dereferenceable(32) %args, i64 noundef %conv)
          to label %while.cond.preheader unwind label %lpad76

while.cond.preheader:                             ; preds = %if.else74
  %cmp78218 = icmp ult ptr %incdec.ptr9, %add.ptr3
  br i1 %cmp78218, label %while.body.preheader, label %while.end

while.body.preheader:                             ; preds = %while.cond.preheader
  br label %while.body

while.body:                                       ; preds = %_ZN11xalanc_1_1010XObjectPtrD2Ev.exit209, %while.body.preheader
  %opPos.addr.0219 = phi ptr [ %add.ptr2.i212, %_ZN11xalanc_1_1010XObjectPtrD2Ev.exit209 ], [ %incdec.ptr9, %while.body.preheader ]
  call void @llvm.lifetime.start.p0(ptr nonnull %ref.tmp) #6
  invoke void @_ZNK11xalanc_1_105XPath11executeMoreEPNS_9XalanNodeEPKiRNS_21XPathExecutionContextE(ptr dead_on_unwind nonnull writable sret(%"class.xalanc_1_10::XObjectPtr") align 8 %ref.tmp, ptr noundef nonnull align 8 dereferenceable(129) %this, ptr noundef %context, ptr noundef %opPos.addr.0219, ptr noundef nonnull align 8 dereferenceable(24) %executionContext)
          to label %invoke.cont80 unwind label %lpad79

invoke.cont80:                                    ; preds = %while.body
  invoke void @_ZN11xalanc_1_1011XalanVectorINS_10XObjectPtrENS_31MemoryManagedConstructionTraitsIS1_EEE10doPushBackERKS1_(ptr noundef nonnull align 8 dereferenceable(32) %args, ptr noundef nonnull align 8 dereferenceable(8) %ref.tmp)
          to label %invoke.cont82 unwind label %lpad81

invoke.cont82:                                    ; preds = %invoke.cont80
  %85 = load ptr, ptr %ref.tmp, align 8, !tbaa !23
  invoke void @_ZN11xalanc_1_1027XalanReferenceCountedObject15removeReferenceEPS0_(ptr noundef %85)
          to label %_ZN11xalanc_1_1010XObjectPtrD2Ev.exit209 unwind label %terminate.lpad.i208

terminate.lpad.i208:                              ; preds = %invoke.cont82
  %86 = landingpad { ptr, i32 }
          catch ptr null
  %87 = extractvalue { ptr, i32 } %86, 0
  call void @__clang_call_terminate(ptr %87) #5
  unreachable

_ZN11xalanc_1_1010XObjectPtrD2Ev.exit209:         ; preds = %invoke.cont82
  call void @llvm.lifetime.end.p0(ptr nonnull %ref.tmp) #6
  %add.ptr.i210 = getelementptr i8, ptr %opPos.addr.0219, i64 4
  %88 = load i32, ptr %add.ptr.i210, align 4, !tbaa !0
  %idx.ext.i211 = sext i32 %88 to i64
  %add.ptr2.i212 = getelementptr i32, ptr %opPos.addr.0219, i64 %idx.ext.i211
  %cmp78 = icmp ult ptr %add.ptr2.i212, %add.ptr3
  br i1 %cmp78, label %while.body, label %while.end.loopexit, !llvm.loop !36

lpad76:                                           ; preds = %while.end, %if.else74
  %89 = landingpad { ptr, i32 }
          cleanup
  br label %ehcleanup89

lpad79:                                           ; preds = %while.body
  %90 = landingpad { ptr, i32 }
          cleanup
  br label %ehcleanup84

lpad81:                                           ; preds = %invoke.cont80
  %91 = landingpad { ptr, i32 }
          cleanup
  %92 = load ptr, ptr %ref.tmp, align 8, !tbaa !23
  invoke void @_ZN11xalanc_1_1027XalanReferenceCountedObject15removeReferenceEPS0_(ptr noundef %92)
          to label %ehcleanup84 unwind label %terminate.lpad.i213

terminate.lpad.i213:                              ; preds = %lpad81
  %93 = landingpad { ptr, i32 }
          catch ptr null
  %94 = extractvalue { ptr, i32 } %93, 0
  call void @__clang_call_terminate(ptr %94) #5
  unreachable

ehcleanup84:                                      ; preds = %lpad81, %lpad79
  %.pn = phi { ptr, i32 } [ %90, %lpad79 ], [ %91, %lpad81 ]
  call void @llvm.lifetime.end.p0(ptr nonnull %ref.tmp) #6
  br label %ehcleanup89

while.end.loopexit:                               ; preds = %_ZN11xalanc_1_1010XObjectPtrD2Ev.exit209
  br label %while.end

while.end:                                        ; preds = %while.end.loopexit, %while.cond.preheader
  %idxprom.i.i = sext i32 %1 to i64
  %arrayidx.i.i = getelementptr ptr, ptr getelementptr inbounds nuw (i8, ptr @_ZN11xalanc_1_105XPath11s_functionsE, i64 8), i64 %idxprom.i.i
  %95 = load ptr, ptr %arrayidx.i.i, align 8, !tbaa !4, !noalias !38
  %m_locator.i = getelementptr inbounds nuw i8, ptr %this, i64 120
  %96 = load ptr, ptr %m_locator.i, align 8, !tbaa !7, !noalias !38
  %vtable.i = load ptr, ptr %95, align 8, !tbaa !21, !noalias !38
  %vfn.i = getelementptr inbounds nuw i8, ptr %vtable.i, i64 16
  %97 = load ptr, ptr %vfn.i, align 8, !noalias !38
  invoke void %97(ptr dead_on_unwind writable sret(%"class.xalanc_1_10::XObjectPtr") align 8 %agg.result, ptr noundef nonnull align 8 dereferenceable(8) %95, ptr noundef nonnull align 8 dereferenceable(24) %executionContext, ptr noundef %context, ptr noundef nonnull align 8 dereferenceable(32) %args, ptr noundef %96)
          to label %invoke.cont88 unwind label %lpad76

invoke.cont88:                                    ; preds = %while.end
  %98 = load i64, ptr %m_allocation.i, align 8, !tbaa !34
  %cmp.not.i = icmp eq i64 %98, 0
  br i1 %cmp.not.i, label %_ZN11xalanc_1_1011XalanVectorINS_10XObjectPtrENS_31MemoryManagedConstructionTraitsIS1_EEED2Ev.exit, label %invoke.cont2.i

invoke.cont2.i:                                   ; preds = %invoke.cont88
  %99 = load ptr, ptr %m_data.i, align 8, !tbaa !35
  %100 = load i64, ptr %m_size.i, align 8, !tbaa !33
  %add.ptr.i.i.idx.i = shl i64 %100, 3
  %add.ptr.i.i.i = getelementptr i8, ptr %99, i64 %add.ptr.i.i.idx.i
  %cmp.not3.i.i = icmp eq i64 %add.ptr.i.i.idx.i, 0
  br i1 %cmp.not3.i.i, label %invoke.cont4.i, label %for.body.i.i.preheader

for.body.i.i.preheader:                           ; preds = %invoke.cont2.i
  br label %for.body.i.i

for.body.i.i:                                     ; preds = %_ZN11xalanc_1_1011XalanVectorINS_10XObjectPtrENS_31MemoryManagedConstructionTraitsIS1_EEE7destroyERS1_.exit.i.i, %for.body.i.i.preheader
  %theFirst.addr.04.i.i = phi ptr [ %incdec.ptr.i.i, %_ZN11xalanc_1_1011XalanVectorINS_10XObjectPtrENS_31MemoryManagedConstructionTraitsIS1_EEE7destroyERS1_.exit.i.i ], [ %99, %for.body.i.i.preheader ]
  %101 = load ptr, ptr %theFirst.addr.04.i.i, align 8, !tbaa !23
  invoke void @_ZN11xalanc_1_1027XalanReferenceCountedObject15removeReferenceEPS0_(ptr noundef %101)
          to label %_ZN11xalanc_1_1011XalanVectorINS_10XObjectPtrENS_31MemoryManagedConstructionTraitsIS1_EEE7destroyERS1_.exit.i.i unwind label %terminate.lpad.i.i.i.i

terminate.lpad.i.i.i.i:                           ; preds = %for.body.i.i
  %102 = landingpad { ptr, i32 }
          catch ptr null
  %103 = extractvalue { ptr, i32 } %102, 0
  call void @__clang_call_terminate(ptr %103) #5
  unreachable

_ZN11xalanc_1_1011XalanVectorINS_10XObjectPtrENS_31MemoryManagedConstructionTraitsIS1_EEE7destroyERS1_.exit.i.i: ; preds = %for.body.i.i
  %incdec.ptr.i.i = getelementptr i8, ptr %theFirst.addr.04.i.i, i64 8
  %cmp.not.i.i = icmp eq ptr %incdec.ptr.i.i, %add.ptr.i.i.i
  br i1 %cmp.not.i.i, label %invoke.cont4.i.loopexit, label %for.body.i.i, !llvm.loop !41

invoke.cont4.i.loopexit:                          ; preds = %_ZN11xalanc_1_1011XalanVectorINS_10XObjectPtrENS_31MemoryManagedConstructionTraitsIS1_EEE7destroyERS1_.exit.i.i
  br label %invoke.cont4.i

invoke.cont4.i:                                   ; preds = %invoke.cont4.i.loopexit, %invoke.cont2.i
  %104 = load ptr, ptr %m_data.i, align 8, !tbaa !35
  %105 = load ptr, ptr %args, align 8, !tbaa !30
  %vtable.i.i = load ptr, ptr %105, align 8, !tbaa !21
  %vfn.i.i = getelementptr inbounds nuw i8, ptr %vtable.i.i, i64 24
  %106 = load ptr, ptr %vfn.i.i, align 8
  invoke void %106(ptr noundef nonnull align 8 dereferenceable(8) %105, ptr noundef %104)
          to label %_ZN11xalanc_1_1011XalanVectorINS_10XObjectPtrENS_31MemoryManagedConstructionTraitsIS1_EEED2Ev.exit unwind label %terminate.lpad.i217

terminate.lpad.i217:                              ; preds = %invoke.cont4.i
  %107 = landingpad { ptr, i32 }
          catch ptr null
  %108 = extractvalue { ptr, i32 } %107, 0
  call void @__clang_call_terminate(ptr %108) #5
  unreachable

_ZN11xalanc_1_1011XalanVectorINS_10XObjectPtrENS_31MemoryManagedConstructionTraitsIS1_EEED2Ev.exit: ; preds = %invoke.cont4.i, %invoke.cont88
  call void @llvm.lifetime.end.p0(ptr nonnull %args) #6
  br label %cleanup

ehcleanup89:                                      ; preds = %ehcleanup84, %lpad76
  %.pn.pn = phi { ptr, i32 } [ %.pn, %ehcleanup84 ], [ %89, %lpad76 ]
  call void @_ZN11xalanc_1_1011XalanVectorINS_10XObjectPtrENS_31MemoryManagedConstructionTraitsIS1_EEED2Ev(ptr noundef nonnull align 8 dereferenceable(32) %args) #6
  call void @llvm.lifetime.end.p0(ptr nonnull %args) #6
  br label %ehcleanup91

cleanup:                                          ; preds = %_ZN11xalanc_1_1011XalanVectorINS_10XObjectPtrENS_31MemoryManagedConstructionTraitsIS1_EEED2Ev.exit, %_ZN11xalanc_1_1010XObjectPtrD2Ev.exit195, %_ZN11xalanc_1_1010XObjectPtrD2Ev.exit169, %invoke.cont, %if.then
  ret void

ehcleanup91:                                      ; preds = %ehcleanup89, %_ZN11xalanc_1_1010XObjectPtrD2Ev.exit205, %_ZN11xalanc_1_1010XObjectPtrD2Ev.exit175, %lpad
  %.pn156 = phi { ptr, i32 } [ %.pn153.pn, %_ZN11xalanc_1_1010XObjectPtrD2Ev.exit175 ], [ %.pn148.pn.pn.pn, %_ZN11xalanc_1_1010XObjectPtrD2Ev.exit205 ], [ %.pn.pn, %ehcleanup89 ], [ %12, %lpad ]
  resume { ptr, i32 } %.pn156
}

; Function Attrs: mustprogress nounwind uwtable
declare dso_local void @_ZN11xalanc_1_1011XalanVectorINS_10XObjectPtrENS_31MemoryManagedConstructionTraitsIS1_EEED2Ev(ptr noundef nonnull align 8 dereferenceable(32)) unnamed_addr #2 align 2

; Function Attrs: noinline noreturn nounwind uwtable
declare hidden void @__clang_call_terminate(ptr noundef) local_unnamed_addr #3

declare void @_ZN11xalanc_1_1027XalanReferenceCountedObject12addReferenceEPS0_(ptr noundef) local_unnamed_addr #4

declare void @_ZN11xalanc_1_1027XalanReferenceCountedObject15removeReferenceEPS0_(ptr noundef) local_unnamed_addr #4

; Function Attrs: mustprogress uwtable
declare dso_local void @_ZN11xalanc_1_1011XalanVectorINS_10XObjectPtrENS_31MemoryManagedConstructionTraitsIS1_EEE10doPushBackERKS1_(ptr noundef nonnull align 8 dereferenceable(32), ptr noundef nonnull align 8 dereferenceable(8)) local_unnamed_addr #1 align 2

; Function Attrs: mustprogress uwtable
declare dso_local void @_ZN11xalanc_1_1011XalanVectorINS_10XObjectPtrENS_31MemoryManagedConstructionTraitsIS1_EEE9doReserveEm(ptr noundef nonnull align 8 dereferenceable(32), i64 noundef) local_unnamed_addr #1 align 2

attributes #0 = { nocallback nofree nosync nounwind willreturn memory(argmem: readwrite) }
attributes #1 = { mustprogress uwtable "min-legal-vector-width"="0" "no-trapping-math"="true" "stack-protector-buffer-size"="8" "target-cpu"="x86-64" "target-features"="+cmov,+cx8,+fxsr,+mmx,+sse,+sse2,+x87" "tune-cpu"="generic" }
attributes #2 = { mustprogress nounwind uwtable "min-legal-vector-width"="0" "no-trapping-math"="true" "stack-protector-buffer-size"="8" "target-cpu"="x86-64" "target-features"="+cmov,+cx8,+fxsr,+mmx,+sse,+sse2,+x87" "tune-cpu"="generic" }
attributes #3 = { noinline noreturn nounwind uwtable "no-trapping-math"="true" "stack-protector-buffer-size"="8" "target-cpu"="x86-64" "target-features"="+cmov,+cx8,+fxsr,+mmx,+sse,+sse2,+x87" "tune-cpu"="generic" }
attributes #4 = { "no-trapping-math"="true" "stack-protector-buffer-size"="8" "target-cpu"="x86-64" "target-features"="+cmov,+cx8,+fxsr,+mmx,+sse,+sse2,+x87" "tune-cpu"="generic" }
attributes #5 = { noreturn nounwind }
attributes #6 = { nounwind }

!0 = !{!1, !1, i64 0}
!1 = !{!"int", !2, i64 0}
!2 = !{!"omnipotent char", !3, i64 0}
!3 = !{!"Simple C++ TBAA"}
!4 = !{!5, !5, i64 0}
!5 = !{!"p1 _ZTSN11xalanc_1_108FunctionE", !6, i64 0}
!6 = !{!"any pointer", !2, i64 0}
!7 = !{!8, !19, i64 120}
!8 = !{!"_ZTSN11xalanc_1_105XPathE", !9, i64 0, !19, i64 120, !20, i64 128}
!9 = !{!"_ZTSN11xalanc_1_1015XPathExpressionE", !10, i64 0, !1, i64 32, !14, i64 40, !1, i64 72, !16, i64 80, !17, i64 88}
!10 = !{!"_ZTSN11xalanc_1_1011XalanVectorIiNS_31MemoryManagedConstructionTraitsIiEEEE", !11, i64 0, !12, i64 8, !12, i64 16, !13, i64 24}
!11 = !{!"p1 _ZTSN11xercesc_2_713MemoryManagerE", !6, i64 0}
!12 = !{!"long", !2, i64 0}
!13 = !{!"p1 int", !6, i64 0}
!14 = !{!"_ZTSN11xalanc_1_1011XalanVectorINS_6XTokenENS_31MemoryManagedConstructionTraitsIS1_EEEE", !11, i64 0, !12, i64 8, !12, i64 16, !15, i64 24}
!15 = !{!"p1 _ZTSN11xalanc_1_106XTokenE", !6, i64 0}
!16 = !{!"p1 _ZTSN11xalanc_1_1014XalanDOMStringE", !6, i64 0}
!17 = !{!"_ZTSN11xalanc_1_1011XalanVectorIdNS_31MemoryManagedConstructionTraitsIdEEEE", !11, i64 0, !12, i64 8, !12, i64 16, !18, i64 24}
!18 = !{!"p1 double", !6, i64 0}
!19 = !{!"p1 _ZTSN11xercesc_2_77LocatorE", !6, i64 0}
!20 = !{!"bool", !2, i64 0}
!21 = !{!22, !22, i64 0}
!22 = !{!"vtable pointer", !3, i64 0}
!23 = !{!24, !25, i64 0}
!24 = !{!"_ZTSN11xalanc_1_1010XObjectPtrE", !25, i64 0}
!25 = !{!"p1 _ZTSN11xalanc_1_107XObjectE", !6, i64 0}
!26 = !{!27, !11, i64 8}
!27 = !{!"_ZTSN11xalanc_1_1016ExecutionContextE", !11, i64 8}
!28 = !{}
!29 = !{i64 8}
!30 = !{!31, !11, i64 0}
!31 = !{!"_ZTSN11xalanc_1_1011XalanVectorINS_10XObjectPtrENS_31MemoryManagedConstructionTraitsIS1_EEEE", !11, i64 0, !12, i64 8, !12, i64 16, !32, i64 24}
!32 = !{!"p1 _ZTSN11xalanc_1_1010XObjectPtrE", !6, i64 0}
!33 = !{!31, !12, i64 8}
!34 = !{!31, !12, i64 16}
!35 = !{!31, !32, i64 24}
!36 = distinct !{!36, !37}
!37 = !{!"llvm.loop.mustprogress"}
!38 = !{!39}
!39 = distinct !{!39, !40, !"_ZNK11xalanc_1_105XPath8functionEPNS_9XalanNodeEiRKNS_11XalanVectorINS_10XObjectPtrENS_31MemoryManagedConstructionTraitsIS4_EEEERNS_21XPathExecutionContextE: %agg.result"}
!40 = distinct !{!40, !"_ZNK11xalanc_1_105XPath8functionEPNS_9XalanNodeEiRKNS_11XalanVectorINS_10XObjectPtrENS_31MemoryManagedConstructionTraitsIS4_EEEERNS_21XPathExecutionContextE"}
!41 = distinct !{!41, !37}
