; ModuleID = '/tmp/tmp.yQAzcHk8Kn/extracted.ll'
source_filename = "/home/manuel/Dev/spec-llvm-bench/test-suite/test-suite-externals/speccpu2017/benchspec/CPU/541.leela_r/src/FastBoard.cpp"
target datalayout = "e-m:e-p270:32:32-p271:32:32-p272:64:64-i64:64-i128:128-f80:128-n8:16:32:64-S128"
target triple = "x86_64-unknown-linux-gnu"

; Function Attrs: mustprogress uwtable
define dso_local noundef i32 @_ZN9FastBoard24get_pattern_fast_augmentEi(ptr noundef nonnull readonly align 8 captures(none) dereferenceable(8052) %this, i32 noundef %sq) local_unnamed_addr #0 align 2 {
entry:
  %m_boardsize = getelementptr inbounds nuw i8, ptr %this, i64 8048
  %0 = load i32, ptr %m_boardsize, align 8, !tbaa !0
  %m_square = getelementptr inbounds nuw i8, ptr %this, i64 1776
  %sub = sub nsw i32 %sq, %0
  %sub2 = add nsw i32 %sub, -2
  %1 = sext i32 %sub to i64
  %2 = getelementptr i32, ptr %m_square, i64 %1
  %arrayidx.i = getelementptr i8, ptr %2, i64 -12
  %3 = load i32, ptr %arrayidx.i, align 4, !tbaa !17
  %conv8 = sext i32 %sub2 to i64
  %arrayidx.i118 = getelementptr inbounds nuw i32, ptr %m_square, i64 %conv8
  %4 = load i32, ptr %arrayidx.i118, align 4, !tbaa !17
  %5 = sext i32 %sub to i64
  %6 = getelementptr i32, ptr %m_square, i64 %5
  %arrayidx.i120 = getelementptr i8, ptr %6, i64 -4
  %7 = load i32, ptr %arrayidx.i120, align 4, !tbaa !17
  %sub18 = add nsw i32 %sq, -1
  %conv19 = sext i32 %sub18 to i64
  %arrayidx.i122 = getelementptr inbounds nuw i32, ptr %m_square, i64 %conv19
  %8 = load i32, ptr %arrayidx.i122, align 4, !tbaa !17
  %add23 = add nsw i32 %sq, 1
  %conv24 = sext i32 %add23 to i64
  %arrayidx.i124 = getelementptr inbounds nuw i32, ptr %m_square, i64 %conv24
  %9 = load i32, ptr %arrayidx.i124, align 4, !tbaa !17
  %add28 = add nsw i32 %0, %sq
  %add29 = add nsw i32 %add28, 2
  %10 = sext i32 %add28 to i64
  %11 = getelementptr i32, ptr %m_square, i64 %10
  %arrayidx.i126 = getelementptr i8, ptr %11, i64 4
  %12 = load i32, ptr %arrayidx.i126, align 4, !tbaa !17
  %conv37 = sext i32 %add29 to i64
  %arrayidx.i128 = getelementptr inbounds nuw i32, ptr %m_square, i64 %conv37
  %13 = load i32, ptr %arrayidx.i128, align 4, !tbaa !17
  %14 = sext i32 %add28 to i64
  %15 = getelementptr i32, ptr %m_square, i64 %14
  %arrayidx.i130 = getelementptr i8, ptr %15, i64 12
  %16 = load i32, ptr %arrayidx.i130, align 4, !tbaa !17
  %shl = shl i32 %3, 14
  %shl49 = shl i32 %4, 12
  %shl51 = shl i32 %7, 10
  %shl54 = shl i32 %8, 8
  %shl57 = shl i32 %9, 6
  %shl60 = shl i32 %12, 4
  %shl63 = shl i32 %13, 2
  %m_parent.i = getelementptr inbounds nuw i8, ptr %this, i64 4424
  %arrayidx.i.i = getelementptr inbounds nuw i16, ptr %m_parent.i, i64 %conv8
  %17 = load i16, ptr %arrayidx.i.i, align 2, !tbaa !19
  %m_libs.i = getelementptr inbounds nuw i8, ptr %this, i64 5308
  %conv3.i = zext i16 %17 to i64
  %arrayidx.i6.i = getelementptr inbounds nuw i16, ptr %m_libs.i, i64 %conv3.i
  %18 = load i16, ptr %arrayidx.i6.i, align 2, !tbaa !19
  %cmp.i = icmp eq i16 %18, 1
  %arrayidx.i.i143 = getelementptr inbounds nuw i16, ptr %m_parent.i, i64 %conv19
  %19 = load i16, ptr %arrayidx.i.i143, align 2, !tbaa !19
  %conv3.i145 = zext i16 %19 to i64
  %arrayidx.i6.i146 = getelementptr inbounds nuw i16, ptr %m_libs.i, i64 %conv3.i145
  %20 = load i16, ptr %arrayidx.i6.i146, align 2, !tbaa !19
  %cmp.i147 = icmp eq i16 %20, 1
  %arrayidx.i.i151 = getelementptr inbounds nuw i16, ptr %m_parent.i, i64 %conv24
  %21 = load i16, ptr %arrayidx.i.i151, align 2, !tbaa !19
  %conv3.i153 = zext i16 %21 to i64
  %arrayidx.i6.i154 = getelementptr inbounds nuw i16, ptr %m_libs.i, i64 %conv3.i153
  %22 = load i16, ptr %arrayidx.i6.i154, align 2, !tbaa !19
  %cmp.i155 = icmp eq i16 %22, 1
  %arrayidx.i.i159 = getelementptr inbounds nuw i16, ptr %m_parent.i, i64 %conv37
  %23 = load i16, ptr %arrayidx.i.i159, align 2, !tbaa !19
  %conv3.i161 = zext i16 %23 to i64
  %arrayidx.i6.i162 = getelementptr inbounds nuw i16, ptr %m_libs.i, i64 %conv3.i161
  %24 = load i16, ptr %arrayidx.i6.i162, align 2, !tbaa !19
  %cmp.i163 = icmp eq i16 %24, 1
  %shl87 = select i1 %cmp.i, i32 524288, i32 0
  %shl89 = select i1 %cmp.i147, i32 262144, i32 0
  %shl92 = select i1 %cmp.i155, i32 131072, i32 0
  %shl95 = select i1 %cmp.i163, i32 65536, i32 0
  %or90 = or i32 %shl49, %shl
  %or93 = or i32 %or90, %shl51
  %or96 = or i32 %or93, %shl54
  %or = or i32 %or96, %shl57
  %or52 = or i32 %or, %shl60
  %or55 = or i32 %or52, %shl63
  %or58 = or i32 %or55, %16
  %or61 = or i32 %or58, %shl87
  %or64 = or i32 %or61, %shl89
  %or67 = or i32 %or64, %shl92
  %or97 = or i32 %or67, %shl95
  ret i32 %or97
}

attributes #0 = { mustprogress uwtable "min-legal-vector-width"="0" "no-trapping-math"="true" "stack-protector-buffer-size"="8" "target-cpu"="x86-64" "target-features"="+cmov,+cx8,+fxsr,+mmx,+sse,+sse2,+x87" "tune-cpu"="generic" }

!0 = !{!1, !5, i64 8048}
!1 = !{!"_ZTS9FastBoard", !2, i64 0, !2, i64 882, !5, i64 1764, !5, i64 1768, !5, i64 1772, !6, i64 1776, !7, i64 3540, !7, i64 4424, !7, i64 5308, !7, i64 6192, !2, i64 7076, !8, i64 7960, !9, i64 7976, !10, i64 8008, !10, i64 8016, !11, i64 8024, !5, i64 8048}
!2 = !{!"_ZTSN5boost5arrayItLm441EEE", !3, i64 0}
!3 = !{!"omnipotent char", !4, i64 0}
!4 = !{!"Simple C++ TBAA"}
!5 = !{!"int", !3, i64 0}
!6 = !{!"_ZTSN5boost5arrayIN9FastBoard8square_tELm441EEE", !3, i64 0}
!7 = !{!"_ZTSN5boost5arrayItLm442EEE", !3, i64 0}
!8 = !{!"_ZTSN5boost5arrayIiLm4EEE", !3, i64 0}
!9 = !{!"_ZTSN5boost5arrayIiLm8EEE", !3, i64 0}
!10 = !{!"_ZTSN5boost5arrayIiLm2EEE", !3, i64 0}
!11 = !{!"_ZTSSt6vectorIiSaIiEE", !12, i64 0}
!12 = !{!"_ZTSSt12_Vector_baseIiSaIiEE", !13, i64 0}
!13 = !{!"_ZTSNSt12_Vector_baseIiSaIiEE12_Vector_implE", !14, i64 0}
!14 = !{!"_ZTSNSt12_Vector_baseIiSaIiEE17_Vector_impl_dataE", !15, i64 0, !15, i64 8, !15, i64 16}
!15 = !{!"p1 int", !16, i64 0}
!16 = !{!"any pointer", !3, i64 0}
!17 = !{!18, !18, i64 0}
!18 = !{!"_ZTSN9FastBoard8square_tE", !3, i64 0}
!19 = !{!20, !20, i64 0}
!20 = !{!"short", !3, i64 0}
